; Function Attrs: nofree norecurse nosync nounwind memory(readwrite, inaccessiblemem: none) uwtable
define i64 @ZSTDv07_decompressBlock(ptr noundef %0, ptr noundef %1, i64 noundef %2, ptr noundef %3, i64 noundef %4) local_unnamed_addr #15 {
  %6 = getelementptr inbounds nuw i8, ptr %0, i64 21520
  %7 = load ptr, ptr %6, align 8, !tbaa !81
  %.not.i = icmp eq ptr %1, %7
  br i1 %.not.i, label %ZSTDv07_checkContinuity.exit, label %8

8:                                                ; preds = %5
  %9 = getelementptr inbounds nuw i8, ptr %0, i64 21544
  store ptr %7, ptr %9, align 8, !tbaa !82
  %10 = getelementptr inbounds nuw i8, ptr %0, i64 21528
  %11 = load ptr, ptr %10, align 8, !tbaa !83
  %12 = ptrtoint ptr %7 to i64
  %13 = ptrtoint ptr %11 to i64
  %.neg.i = sub i64 %13, %12
  %14 = getelementptr inbounds i8, ptr %1, i64 %.neg.i
  %15 = getelementptr inbounds nuw i8, ptr %0, i64 21536
  store ptr %14, ptr %15, align 8, !tbaa !84
  store ptr %1, ptr %10, align 8, !tbaa !83
  store ptr %1, ptr %6, align 8, !tbaa !81
  br label %ZSTDv07_checkContinuity.exit

ZSTDv07_checkContinuity.exit:                     ; preds = %5, %8
  %16 = tail call fastcc i64 @ZSTDv07_decompressBlock_internal(ptr noundef nonnull %0, ptr noundef %1, i64 noundef %2, ptr noundef %3, i64 noundef %4)
  %17 = getelementptr inbounds nuw i8, ptr %1, i64 %16
  store ptr %17, ptr %6, align 8, !tbaa !81
  ret i64 %16
}